target datalayout = "e-m:e-p270:32:32-p271:32:32-p272:64:64-i64:64-i128:128-f80:128-n8:16:32:64-S128"
target triple = "x86_64-pc-linux-gnu"

%"class.folly::Range" = type { ptr, ptr }

; Function Attrs: inlinehint mustprogress nounwind uwtable
define internal noundef zeroext i1 @_ZN5follyL11is_oddspaceEc(i8 noundef signext %0) #2 {
  %2 = alloca i8, align 1
  store i8 %0, ptr %2, align 1, !tbaa !7
  %3 = load i8, ptr %2, align 1, !tbaa !7
  %4 = sext i8 %3 to i32
  %5 = icmp eq i32 %4, 10
  br i1 %5, label %14, label %6

6:                                                ; preds = %1
  %7 = load i8, ptr %2, align 1, !tbaa !7
  %8 = sext i8 %7 to i32
  %9 = icmp eq i32 %8, 9
  br i1 %9, label %14, label %10

10:                                               ; preds = %6
  %11 = load i8, ptr %2, align 1, !tbaa !7
  %12 = sext i8 %11 to i32
  %13 = icmp eq i32 %12, 13
  br label %14

14:                                               ; preds = %10, %6, %1
  %15 = phi i1 [ true, %6 ], [ true, %1 ], [ %13, %10 ]
  ret i1 %15
}

; Function Attrs: mustprogress nounwind uwtable
define linkonce_odr void @_ZN5folly5RangeIPKcE9pop_frontEv(ptr noundef nonnull align 8 dereferenceable(16) %0) #1 comdat align 2 {
  %2 = alloca ptr, align 8
  store ptr %0, ptr %2, align 8, !tbaa !17
  %3 = load ptr, ptr %2, align 8
  %4 = getelementptr inbounds nuw %"class.folly::Range", ptr %3, i32 0, i32 0
  %5 = load ptr, ptr %4, align 8, !tbaa !19
  %6 = getelementptr inbounds nuw i8, ptr %5, i32 1
  store ptr %6, ptr %4, align 8, !tbaa !19
  ret void
}

; Function Attrs: mustprogress nounwind uwtable
define linkonce_odr noundef nonnull align 1 dereferenceable(1) ptr @_ZN5folly5RangeIPKcE5frontEv(ptr noundef nonnull align 8 dereferenceable(16) %0) #1 comdat align 2 {
  %2 = alloca ptr, align 8
  store ptr %0, ptr %2, align 8, !tbaa !17
  %3 = load ptr, ptr %2, align 8
  %4 = getelementptr inbounds nuw %"class.folly::Range", ptr %3, i32 0, i32 0
  %5 = load ptr, ptr %4, align 8, !tbaa !19
  ret ptr %5
}

; Function Attrs: mustprogress nounwind uwtable
define linkonce_odr noundef zeroext i1 @_ZNK5folly5RangeIPKcE5emptyEv(ptr noundef nonnull align 8 dereferenceable(16) %0) #1 comdat align 2 {
  %2 = alloca ptr, align 8
  store ptr %0, ptr %2, align 8, !tbaa !17
  %3 = load ptr, ptr %2, align 8
  %4 = getelementptr inbounds nuw %"class.folly::Range", ptr %3, i32 0, i32 0
  %5 = load ptr, ptr %4, align 8, !tbaa !19
  %6 = getelementptr inbounds nuw %"class.folly::Range", ptr %3, i32 0, i32 1
  %7 = load ptr, ptr %6, align 8, !tbaa !21
  %8 = icmp eq ptr %5, %7
  ret i1 %8
}

; Function Attrs: mustprogress uwtable
define { ptr, ptr } @_ZN5folly15ltrimWhitespaceENS_5RangeIPKcEE(ptr %0, ptr %1) #0 {
  %3 = alloca %"class.folly::Range", align 8
  %4 = alloca %"class.folly::Range", align 8
  %5 = getelementptr inbounds nuw { ptr, ptr }, ptr %4, i32 0, i32 0
  store ptr %0, ptr %5, align 8
  %6 = getelementptr inbounds nuw { ptr, ptr }, ptr %4, i32 0, i32 1
  store ptr %1, ptr %6, align 8
  br label %7

7:                                                ; preds = %2, %24
  br label %8

8:                                                ; preds = %17, %7
  %9 = call noundef zeroext i1 @_ZNK5folly5RangeIPKcE5emptyEv(ptr noundef nonnull align 8 dereferenceable(16) %4)
  br i1 %9, label %15, label %10

10:                                               ; preds = %8
  %11 = call noundef nonnull align 1 dereferenceable(1) ptr @_ZN5folly5RangeIPKcE5frontEv(ptr noundef nonnull align 8 dereferenceable(16) %4)
  %12 = load i8, ptr %11, align 1, !tbaa !7
  %13 = sext i8 %12 to i32
  %14 = icmp eq i32 %13, 32
  br label %15

15:                                               ; preds = %10, %8
  %16 = phi i1 [ false, %8 ], [ %14, %10 ]
  br i1 %16, label %17, label %18

17:                                               ; preds = %15
  call void @_ZN5folly5RangeIPKcE9pop_frontEv(ptr noundef nonnull align 8 dereferenceable(16) %4)
  br label %8, !llvm.loop !10

18:                                               ; preds = %15
  %19 = call noundef zeroext i1 @_ZNK5folly5RangeIPKcE5emptyEv(ptr noundef nonnull align 8 dereferenceable(16) %4)
  br i1 %19, label %25, label %20

20:                                               ; preds = %18
  %21 = call noundef nonnull align 1 dereferenceable(1) ptr @_ZN5folly5RangeIPKcE5frontEv(ptr noundef nonnull align 8 dereferenceable(16) %4)
  %22 = load i8, ptr %21, align 1, !tbaa !7
  %23 = call noundef zeroext i1 @_ZN5follyL11is_oddspaceEc(i8 noundef signext %22)
  br i1 %23, label %24, label %25

24:                                               ; preds = %20
  call void @_ZN5folly5RangeIPKcE9pop_frontEv(ptr noundef nonnull align 8 dereferenceable(16) %4)
  br label %7, !llvm.loop !12

25:                                               ; preds = %20, %18
  call void @llvm.memcpy.p0.p0.i64(ptr align 8 %3, ptr align 8 %4, i64 16, i1 false), !tbaa.struct !13
  %26 = load { ptr, ptr }, ptr %3, align 8
  ret { ptr, ptr } %26
}