; Function Attrs: mustprogress nofree norecurse nosync nounwind willreturn memory(argmem: read) uwtable
define { ptr, ptr } @_ZN5folly15ltrimWhitespaceENS_5RangeIPKcEE(ptr %0, ptr %1) local_unnamed_addr #0 {
  %3 = ptrtoint ptr %1 to i64
  %4 = icmp eq ptr %0, %1
  br i1 %4, label %.critedge.thread, label %.lr.ph

.lr.ph:                                           ; preds = %2, %10
  %.sroa.0.013 = phi ptr [ %11, %10 ], [ %0, %2 ]
  br label %5

5:                                                ; preds = %.lr.ph, %7
  %.sroa.0.110 = phi ptr [ %.sroa.0.013, %.lr.ph ], [ %8, %7 ]
  %6 = load i8, ptr %.sroa.0.110, align 1, !tbaa !7
  switch i8 %6, label %.critedge.thread [
    i8 32, label %7
    i8 13, label %10
    i8 10, label %10
    i8 9, label %10
  ]

7:                                                ; preds = %5
  %8 = getelementptr inbounds nuw i8, ptr %.sroa.0.110, i64 1
  %9 = icmp eq ptr %8, %1
  br i1 %9, label %.critedge.thread.loopexit, label %5, !llvm.loop !10

10:                                               ; preds = %5, %5, %5
  %11 = getelementptr inbounds nuw i8, ptr %.sroa.0.110, i64 1
  %12 = icmp eq ptr %11, %1
  br i1 %12, label %.critedge.thread, label %.lr.ph, !llvm.loop !12

.critedge.thread.loopexit:                        ; preds = %7
  %scevgep.le = getelementptr i8, ptr %.sroa.0.013, i64 %3
  %.sroa.0.01317.le = ptrtoint ptr %.sroa.0.013 to i64
  %13 = sub i64 0, %.sroa.0.01317.le
  %scevgep18.le = getelementptr i8, ptr %scevgep.le, i64 %13
  br label %.critedge.thread

.critedge.thread:                                 ; preds = %10, %5, %.critedge.thread.loopexit, %2
  %.sroa.0.19 = phi ptr [ %0, %2 ], [ %scevgep18.le, %.critedge.thread.loopexit ], [ %.sroa.0.110, %5 ], [ %11, %10 ]
  %.fca.0.insert = insertvalue { ptr, ptr } poison, ptr %.sroa.0.19, 0
  %.fca.1.insert = insertvalue { ptr, ptr } %.fca.0.insert, ptr %1, 1
  ret { ptr, ptr } %.fca.1.insert
}